target datalayout = "e-m:e-p270:32:32-p271:32:32-p272:64:64-i64:64-i128:128-f80:128-n8:16:32:64-S128"
target triple = "x86_64-pc-linux-gnu"

%struct.reftable_block = type { ptr, i64, %struct.reftable_block_source }
%struct.reftable_block_source = type { ptr, ptr }
%struct.block_reader = type { i32, %struct.reftable_block, i32, ptr, ptr, i64, i32, ptr, i16, i32 }

; Function Attrs: nounwind uwtable
define dso_local zeroext i8 @block_reader_type(ptr noundef %0) #0 {
  %2 = alloca ptr, align 8
  store ptr %0, ptr %2, align 8, !tbaa !61
  %3 = load ptr, ptr %2, align 8, !tbaa !61
  %4 = getelementptr inbounds nuw %struct.block_reader, ptr %3, i32 0, i32 1
  %5 = getelementptr inbounds nuw %struct.reftable_block, ptr %4, i32 0, i32 0
  %6 = load ptr, ptr %5, align 8, !tbaa !90
  %7 = load ptr, ptr %2, align 8, !tbaa !61
  %8 = getelementptr inbounds nuw %struct.block_reader, ptr %7, i32 0, i32 0
  %9 = load i32, ptr %8, align 8, !tbaa !80
  %10 = zext i32 %9 to i64
  %11 = getelementptr inbounds nuw i8, ptr %6, i64 %10
  %12 = load i8, ptr %11, align 1, !tbaa !11
  ret i8 %12
}