; Function Attrs: mustprogress nofree norecurse nosync nounwind willreturn memory(read, inaccessiblemem: none) uwtable
define dso_local zeroext i8 @block_reader_type(ptr noundef readonly captures(none) %0) local_unnamed_addr #4 {
  %2 = getelementptr inbounds nuw i8, ptr %0, i64 8
  %3 = load ptr, ptr %2, align 8, !tbaa !66
  %4 = load i32, ptr %0, align 8, !tbaa !63
  %5 = zext i32 %4 to i64
  %6 = getelementptr inbounds nuw i8, ptr %3, i64 %5
  %7 = load i8, ptr %6, align 1, !tbaa !19
  ret i8 %7
}